target datalayout = "e-m:e-p270:32:32-p271:32:32-p272:64:64-i64:64-i128:128-f80:128-n8:16:32:64-S128"
target triple = "x86_64-pc-linux-gnu"

%struct.compile_block_8 = type { ptr, ptr, ptr, ptr, ptr, ptr, ptr, ptr, ptr, ptr, i64, [10 x i64], i64, i16, i16, i16, i16, ptr, i32, i32, i32, i32, i32, ptr, ptr, ptr, i32, i32, i32, i32, i32, i32, [4 x i8], i32, i32, i32, i32, i32, i32, i32 }

@_pcre2_OP_lengths_8 = external constant [0 x i8], align 1

; Function Attrs: nounwind uwtable
define internal i32 @is_startline(ptr noundef %0, i32 noundef %1, ptr noundef %2, i32 noundef %3, i32 noundef %4) #0 {
  %6 = alloca i32, align 4
  %7 = alloca ptr, align 8
  %8 = alloca i32, align 4
  %9 = alloca ptr, align 8
  %10 = alloca i32, align 4
  %11 = alloca i32, align 4
  %12 = alloca ptr, align 8
  %13 = alloca i32, align 4
  %14 = alloca i32, align 4
  %15 = alloca i32, align 4
  store ptr %0, ptr %7, align 8
  store i32 %1, ptr %8, align 4
  store ptr %2, ptr %9, align 8
  store i32 %3, ptr %10, align 4
  store i32 %4, ptr %11, align 4
  br label %16

16:                                               ; preds = %267, %5
  %17 = load ptr, ptr %7, align 8
  %18 = load ptr, ptr %7, align 8
  %19 = load i8, ptr %18, align 1
  %20 = zext i8 %19 to i64
  %21 = getelementptr inbounds [0 x i8], ptr @_pcre2_OP_lengths_8, i64 0, i64 %20
  %22 = load i8, ptr %21, align 1
  %23 = zext i8 %22 to i32
  %24 = sext i32 %23 to i64
  %25 = getelementptr inbounds i8, ptr %17, i64 %24
  %26 = call ptr @first_significant_code(ptr noundef %25, i32 noundef 0)
  store ptr %26, ptr %12, align 8
  %27 = load ptr, ptr %12, align 8
  %28 = load i8, ptr %27, align 1
  %29 = zext i8 %28 to i32
  store i32 %29, ptr %13, align 4
  %30 = load i32, ptr %13, align 4
  %31 = icmp eq i32 %30, 139
  br i1 %31, label %32, label %107

32:                                               ; preds = %16
  %33 = load ptr, ptr %12, align 8
  %34 = getelementptr inbounds i8, ptr %33, i64 3
  store ptr %34, ptr %12, align 8
  %35 = load ptr, ptr %12, align 8
  %36 = load i8, ptr %35, align 1
  %37 = zext i8 %36 to i32
  %38 = icmp eq i32 %37, 118
  br i1 %38, label %39, label %45

39:                                               ; preds = %32
  %40 = load i8, ptr getelementptr inbounds ([0 x i8], ptr @_pcre2_OP_lengths_8, i64 0, i64 118), align 1
  %41 = zext i8 %40 to i32
  %42 = load ptr, ptr %12, align 8
  %43 = sext i32 %41 to i64
  %44 = getelementptr inbounds i8, ptr %42, i64 %43
  store ptr %44, ptr %12, align 8
  br label %65

45:                                               ; preds = %32
  %46 = load ptr, ptr %12, align 8
  %47 = load i8, ptr %46, align 1
  %48 = zext i8 %47 to i32
  %49 = icmp eq i32 %48, 119
  br i1 %49, label %50, label %64

50:                                               ; preds = %45
  %51 = load ptr, ptr %12, align 8
  %52 = getelementptr inbounds i8, ptr %51, i64 5
  %53 = load i8, ptr %52, align 1
  %54 = zext i8 %53 to i32
  %55 = shl i32 %54, 8
  %56 = load ptr, ptr %12, align 8
  %57 = getelementptr inbounds i8, ptr %56, i64 6
  %58 = load i8, ptr %57, align 1
  %59 = zext i8 %58 to i32
  %60 = or i32 %55, %59
  %61 = load ptr, ptr %12, align 8
  %62 = zext i32 %60 to i64
  %63 = getelementptr inbounds i8, ptr %61, i64 %62
  store ptr %63, ptr %12, align 8
  br label %64

64:                                               ; preds = %50, %45
  br label %65

65:                                               ; preds = %64, %39
  %66 = load ptr, ptr %12, align 8
  %67 = load i8, ptr %66, align 1
  %68 = zext i8 %67 to i32
  switch i32 %68, label %70 [
    i32 145, label %69
    i32 146, label %69
    i32 147, label %69
    i32 148, label %69
    i32 163, label %69
    i32 149, label %69
    i32 150, label %69
  ]

69:                                               ; preds = %65, %65, %65, %65, %65, %65, %65
  store i32 0, ptr %6, align 4
  br label %273

70:                                               ; preds = %65
  %71 = load ptr, ptr %12, align 8
  %72 = load i32, ptr %8, align 4
  %73 = load ptr, ptr %9, align 8
  %74 = load i32, ptr %10, align 4
  %75 = call i32 @is_startline(ptr noundef %71, i32 noundef %72, ptr noundef %73, i32 noundef %74, i32 noundef 1)
  %76 = icmp ne i32 %75, 0
  br i1 %76, label %78, label %77

77:                                               ; preds = %70
  store i32 0, ptr %6, align 4
  br label %273

78:                                               ; preds = %70
  br label %79

79:                                               ; preds = %93, %78
  %80 = load ptr, ptr %12, align 8
  %81 = getelementptr inbounds i8, ptr %80, i64 1
  %82 = load i8, ptr %81, align 1
  %83 = zext i8 %82 to i32
  %84 = shl i32 %83, 8
  %85 = load ptr, ptr %12, align 8
  %86 = getelementptr inbounds i8, ptr %85, i64 2
  %87 = load i8, ptr %86, align 1
  %88 = zext i8 %87 to i32
  %89 = or i32 %84, %88
  %90 = load ptr, ptr %12, align 8
  %91 = zext i32 %89 to i64
  %92 = getelementptr inbounds i8, ptr %90, i64 %91
  store ptr %92, ptr %12, align 8
  br label %93

93:                                               ; preds = %79
  %94 = load ptr, ptr %12, align 8
  %95 = load i8, ptr %94, align 1
  %96 = zext i8 %95 to i32
  %97 = icmp eq i32 %96, 120
  br i1 %97, label %79, label %98

98:                                               ; preds = %93
  %99 = load ptr, ptr %12, align 8
  %100 = getelementptr inbounds i8, ptr %99, i64 3
  store ptr %100, ptr %12, align 8
  br label %101

101:                                              ; preds = %98
  %102 = load ptr, ptr %12, align 8
  %103 = call ptr @first_significant_code(ptr noundef %102, i32 noundef 0)
  store ptr %103, ptr %12, align 8
  %104 = load ptr, ptr %12, align 8
  %105 = load i8, ptr %104, align 1
  %106 = zext i8 %105 to i32
  store i32 %106, ptr %13, align 4
  br label %107

107:                                              ; preds = %101, %16
  %108 = load i32, ptr %13, align 4
  %109 = icmp eq i32 %108, 135
  br i1 %109, label %119, label %110

110:                                              ; preds = %107
  %111 = load i32, ptr %13, align 4
  %112 = icmp eq i32 %111, 136
  br i1 %112, label %119, label %113

113:                                              ; preds = %110
  %114 = load i32, ptr %13, align 4
  %115 = icmp eq i32 %114, 140
  br i1 %115, label %119, label %116

116:                                              ; preds = %113
  %117 = load i32, ptr %13, align 4
  %118 = icmp eq i32 %117, 141
  br i1 %118, label %119, label %129

119:                                              ; preds = %116, %113, %110, %107
  %120 = load ptr, ptr %12, align 8
  %121 = load i32, ptr %8, align 4
  %122 = load ptr, ptr %9, align 8
  %123 = load i32, ptr %10, align 4
  %124 = load i32, ptr %11, align 4
  %125 = call i32 @is_startline(ptr noundef %120, i32 noundef %121, ptr noundef %122, i32 noundef %123, i32 noundef %124)
  %126 = icmp ne i32 %125, 0
  br i1 %126, label %128, label %127

127:                                              ; preds = %119
  store i32 0, ptr %6, align 4
  br label %273

128:                                              ; preds = %119
  br label %253

129:                                              ; preds = %116
  %130 = load i32, ptr %13, align 4
  %131 = icmp eq i32 %130, 137
  br i1 %131, label %141, label %132

132:                                              ; preds = %129
  %133 = load i32, ptr %13, align 4
  %134 = icmp eq i32 %133, 138
  br i1 %134, label %141, label %135

135:                                              ; preds = %132
  %136 = load i32, ptr %13, align 4
  %137 = icmp eq i32 %136, 142
  br i1 %137, label %141, label %138

138:                                              ; preds = %135
  %139 = load i32, ptr %13, align 4
  %140 = icmp eq i32 %139, 143
  br i1 %140, label %141, label %171

141:                                              ; preds = %138, %135, %132, %129
  %142 = load ptr, ptr %12, align 8
  %143 = getelementptr inbounds i8, ptr %142, i64 3
  %144 = load i8, ptr %143, align 1
  %145 = zext i8 %144 to i32
  %146 = shl i32 %145, 8
  %147 = load ptr, ptr %12, align 8
  %148 = getelementptr inbounds i8, ptr %147, i64 4
  %149 = load i8, ptr %148, align 1
  %150 = zext i8 %149 to i32
  %151 = or i32 %146, %150
  store i32 %151, ptr %14, align 4
  %152 = load i32, ptr %8, align 4
  %153 = load i32, ptr %14, align 4
  %154 = icmp slt i32 %153, 32
  br i1 %154, label %155, label %158

155:                                              ; preds = %141
  %156 = load i32, ptr %14, align 4
  %157 = shl i32 1, %156
  br label %159

158:                                              ; preds = %141
  br label %159

159:                                              ; preds = %158, %155
  %160 = phi i32 [ %157, %155 ], [ 1, %158 ]
  %161 = or i32 %152, %160
  store i32 %161, ptr %15, align 4
  %162 = load ptr, ptr %12, align 8
  %163 = load i32, ptr %15, align 4
  %164 = load ptr, ptr %9, align 8
  %165 = load i32, ptr %10, align 4
  %166 = load i32, ptr %11, align 4
  %167 = call i32 @is_startline(ptr noundef %162, i32 noundef %163, ptr noundef %164, i32 noundef %165, i32 noundef %166)
  %168 = icmp ne i32 %167, 0
  br i1 %168, label %170, label %169

169:                                              ; preds = %159
  store i32 0, ptr %6, align 4
  br label %273

170:                                              ; preds = %159
  br label %252

171:                                              ; preds = %138
  %172 = load i32, ptr %13, align 4
  %173 = icmp eq i32 %172, 127
  br i1 %173, label %177, label %174

174:                                              ; preds = %171
  %175 = load i32, ptr %13, align 4
  %176 = icmp eq i32 %175, 131
  br i1 %176, label %177, label %186

177:                                              ; preds = %174, %171
  %178 = load ptr, ptr %12, align 8
  %179 = load i32, ptr %8, align 4
  %180 = load ptr, ptr %9, align 8
  %181 = load i32, ptr %10, align 4
  %182 = call i32 @is_startline(ptr noundef %178, i32 noundef %179, ptr noundef %180, i32 noundef %181, i32 noundef 1)
  %183 = icmp ne i32 %182, 0
  br i1 %183, label %185, label %184

184:                                              ; preds = %177
  store i32 0, ptr %6, align 4
  br label %273

185:                                              ; preds = %177
  br label %251

186:                                              ; preds = %174
  %187 = load i32, ptr %13, align 4
  %188 = icmp eq i32 %187, 133
  br i1 %188, label %189, label %200

189:                                              ; preds = %186
  %190 = load ptr, ptr %12, align 8
  %191 = load i32, ptr %8, align 4
  %192 = load ptr, ptr %9, align 8
  %193 = load i32, ptr %10, align 4
  %194 = add nsw i32 %193, 1
  %195 = load i32, ptr %11, align 4
  %196 = call i32 @is_startline(ptr noundef %190, i32 noundef %191, ptr noundef %192, i32 noundef %194, i32 noundef %195)
  %197 = icmp ne i32 %196, 0
  br i1 %197, label %199, label %198

198:                                              ; preds = %189
  store i32 0, ptr %6, align 4
  br label %273

199:                                              ; preds = %189
  br label %250

200:                                              ; preds = %186
  %201 = load i32, ptr %13, align 4
  %202 = icmp eq i32 %201, 85
  br i1 %202, label %209, label %203

203:                                              ; preds = %200
  %204 = load i32, ptr %13, align 4
  %205 = icmp eq i32 %204, 86
  br i1 %205, label %209, label %206

206:                                              ; preds = %203
  %207 = load i32, ptr %13, align 4
  %208 = icmp eq i32 %207, 94
  br i1 %208, label %209, label %241

209:                                              ; preds = %206, %203, %200
  %210 = load ptr, ptr %12, align 8
  %211 = getelementptr inbounds i8, ptr %210, i64 1
  %212 = load i8, ptr %211, align 1
  %213 = zext i8 %212 to i32
  %214 = icmp ne i32 %213, 12
  br i1 %214, label %239, label %215

215:                                              ; preds = %209
  %216 = load i32, ptr %8, align 4
  %217 = load ptr, ptr %9, align 8
  %218 = getelementptr inbounds %struct.compile_block_8, ptr %217, i32 0, i32 27
  %219 = load i32, ptr %218, align 4
  %220 = and i32 %216, %219
  %221 = icmp ne i32 %220, 0
  br i1 %221, label %239, label %222

222:                                              ; preds = %215
  %223 = load i32, ptr %10, align 4
  %224 = icmp sgt i32 %223, 0
  br i1 %224, label %239, label %225

225:                                              ; preds = %222
  %226 = load ptr, ptr %9, align 8
  %227 = getelementptr inbounds %struct.compile_block_8, ptr %226, i32 0, i32 37
  %228 = load i32, ptr %227, align 4
  %229 = icmp ne i32 %228, 0
  br i1 %229, label %239, label %230

230:                                              ; preds = %225
  %231 = load i32, ptr %11, align 4
  %232 = icmp ne i32 %231, 0
  br i1 %232, label %239, label %233

233:                                              ; preds = %230
  %234 = load ptr, ptr %9, align 8
  %235 = getelementptr inbounds %struct.compile_block_8, ptr %234, i32 0, i32 19
  %236 = load i32, ptr %235, align 4
  %237 = and i32 %236, 32768
  %238 = icmp ne i32 %237, 0
  br i1 %238, label %239, label %240

239:                                              ; preds = %233, %230, %225, %222, %215, %209
  store i32 0, ptr %6, align 4
  br label %273

240:                                              ; preds = %233
  br label %249

241:                                              ; preds = %206
  %242 = load i32, ptr %13, align 4
  %243 = icmp ne i32 %242, 27
  br i1 %243, label %244, label %248

244:                                              ; preds = %241
  %245 = load i32, ptr %13, align 4
  %246 = icmp ne i32 %245, 28
  br i1 %246, label %247, label %248

247:                                              ; preds = %244
  store i32 0, ptr %6, align 4
  br label %273

248:                                              ; preds = %244, %241
  br label %249

249:                                              ; preds = %248, %240
  br label %250

250:                                              ; preds = %249, %199
  br label %251

251:                                              ; preds = %250, %185
  br label %252

252:                                              ; preds = %251, %170
  br label %253

253:                                              ; preds = %252, %128
  %254 = load ptr, ptr %7, align 8
  %255 = getelementptr inbounds i8, ptr %254, i64 1
  %256 = load i8, ptr %255, align 1
  %257 = zext i8 %256 to i32
  %258 = shl i32 %257, 8
  %259 = load ptr, ptr %7, align 8
  %260 = getelementptr inbounds i8, ptr %259, i64 2
  %261 = load i8, ptr %260, align 1
  %262 = zext i8 %261 to i32
  %263 = or i32 %258, %262
  %264 = load ptr, ptr %7, align 8
  %265 = zext i32 %263 to i64
  %266 = getelementptr inbounds i8, ptr %264, i64 %265
  store ptr %266, ptr %7, align 8
  br label %267

267:                                              ; preds = %253
  %268 = load ptr, ptr %7, align 8
  %269 = load i8, ptr %268, align 1
  %270 = zext i8 %269 to i32
  %271 = icmp eq i32 %270, 120
  br i1 %271, label %16, label %272

272:                                              ; preds = %267
  store i32 1, ptr %6, align 4
  br label %273

273:                                              ; preds = %272, %247, %239, %198, %184, %169, %127, %77, %69
  %274 = load i32, ptr %6, align 4
  ret i32 %274
}