; Function Attrs: nofree nosync nounwind memory(read, inaccessiblemem: none) uwtable
define internal fastcc noundef i32 @is_startline(ptr noundef readonly %0, i32 noundef %1, ptr noundef readonly %2, i32 noundef %3, i32 noundef %4) unnamed_addr #8 {
  %6 = getelementptr inbounds i8, ptr %2, i64 284
  %7 = getelementptr inbounds i8, ptr %2, i64 196
  %8 = add nsw i32 %3, 1
  %9 = getelementptr inbounds i8, ptr %2, i64 244
  %10 = icmp sgt i32 %3, 0
  %.pre = load i8, ptr %0, align 1
  %11 = zext i8 %.pre to i64
  br label %12

12:                                               ; preds = %91, %5
  %13 = phi i64 [ %11, %5 ], [ 120, %91 ]
  %.097 = phi ptr [ %0, %5 ], [ %100, %91 ]
  %14 = getelementptr inbounds [0 x i8], ptr @_pcre2_OP_lengths_8, i64 0, i64 %13
  %15 = load i8, ptr %14, align 1
  %16 = zext i8 %15 to i64
  %17 = getelementptr inbounds i8, ptr %.097, i64 %16
  %18 = tail call fastcc ptr @first_significant_code(ptr noundef nonnull %17, i32 noundef 0)
  %19 = load i8, ptr %18, align 1
  %20 = icmp eq i8 %19, -117
  br i1 %20, label %21, label %55

21:                                               ; preds = %12
  %22 = getelementptr inbounds i8, ptr %18, i64 3
  %23 = load i8, ptr %22, align 1
  switch i8 %23, label %36 [
    i8 118, label %24
    i8 119, label %27
  ]

24:                                               ; preds = %21
  %25 = load i8, ptr getelementptr inbounds ([0 x i8], ptr @_pcre2_OP_lengths_8, i64 0, i64 118), align 1
  %26 = zext i8 %25 to i64
  br label %thread-pre-split

27:                                               ; preds = %21
  %28 = getelementptr inbounds i8, ptr %18, i64 8
  %29 = load i8, ptr %28, align 1
  %30 = zext i8 %29 to i64
  %31 = shl nuw nsw i64 %30, 8
  %32 = getelementptr inbounds i8, ptr %18, i64 9
  %33 = load i8, ptr %32, align 1
  %34 = zext i8 %33 to i64
  %35 = or disjoint i64 %31, %34
  br label %thread-pre-split

thread-pre-split:                                 ; preds = %24, %27
  %.pn = phi i64 [ %35, %27 ], [ %26, %24 ]
  %.099.ph = getelementptr inbounds i8, ptr %22, i64 %.pn
  %.pr = load i8, ptr %.099.ph, align 1
  br label %36

36:                                               ; preds = %thread-pre-split, %21
  %37 = phi i8 [ %.pr, %thread-pre-split ], [ %23, %21 ]
  %.099 = phi ptr [ %.099.ph, %thread-pre-split ], [ %22, %21 ]
  switch i8 %37, label %38 [
    i8 -111, label %103
    i8 -110, label %103
    i8 -109, label %103
    i8 -108, label %103
    i8 -93, label %103
    i8 -107, label %103
    i8 -106, label %103
  ]

38:                                               ; preds = %36
  %39 = tail call fastcc i32 @is_startline(ptr noundef nonnull %.099, i32 noundef %1, ptr noundef %2, i32 noundef %3, i32 noundef 1), !range !4
  %.not = icmp eq i32 %39, 0
  br i1 %.not, label %103, label %.preheader

.preheader:                                       ; preds = %38, %.preheader
  %.1 = phi ptr [ %48, %.preheader ], [ %.099, %38 ]
  %40 = getelementptr inbounds i8, ptr %.1, i64 1
  %41 = load i8, ptr %40, align 1
  %42 = zext i8 %41 to i64
  %43 = shl nuw nsw i64 %42, 8
  %44 = getelementptr inbounds i8, ptr %.1, i64 2
  %45 = load i8, ptr %44, align 1
  %46 = zext i8 %45 to i64
  %47 = or disjoint i64 %43, %46
  %48 = getelementptr inbounds i8, ptr %.1, i64 %47
  %49 = load i8, ptr %48, align 1
  %50 = icmp eq i8 %49, 120
  br i1 %50, label %.preheader, label %51

51:                                               ; preds = %.preheader
  %52 = getelementptr inbounds i8, ptr %48, i64 3
  %53 = tail call fastcc ptr @first_significant_code(ptr noundef nonnull %52, i32 noundef 0)
  %54 = load i8, ptr %53, align 1
  br label %55

55:                                               ; preds = %51, %12
  %.2 = phi ptr [ %53, %51 ], [ %18, %12 ]
  %.098.in = phi i8 [ %54, %51 ], [ %19, %12 ]
  switch i8 %.098.in, label %89 [
    i8 -115, label %56
    i8 -116, label %56
    i8 -120, label %56
    i8 -121, label %56
    i8 -113, label %58
    i8 -114, label %58
    i8 -118, label %58
    i8 -119, label %58
    i8 -125, label %72
    i8 127, label %72
    i8 -123, label %74
    i8 94, label %76
    i8 86, label %76
    i8 85, label %76
  ]

56:                                               ; preds = %55, %55, %55, %55
  %57 = tail call fastcc i32 @is_startline(ptr noundef nonnull %.2, i32 noundef %1, ptr noundef %2, i32 noundef %3, i32 noundef %4), !range !4
  %.not107 = icmp eq i32 %57, 0
  br i1 %.not107, label %103, label %91

58:                                               ; preds = %55, %55, %55, %55
  %59 = getelementptr inbounds i8, ptr %.2, i64 3
  %60 = load i8, ptr %59, align 1
  %61 = zext i8 %60 to i32
  %62 = shl nuw nsw i32 %61, 8
  %63 = getelementptr inbounds i8, ptr %.2, i64 4
  %64 = load i8, ptr %63, align 1
  %65 = zext i8 %64 to i32
  %66 = or disjoint i32 %62, %65
  %67 = icmp ult i32 %66, 32
  %68 = shl nuw i32 1, %66
  %69 = select i1 %67, i32 %68, i32 1
  %70 = or i32 %69, %1
  %71 = tail call fastcc i32 @is_startline(ptr noundef nonnull %.2, i32 noundef %70, ptr noundef %2, i32 noundef %3, i32 noundef %4), !range !4
  %.not106 = icmp eq i32 %71, 0
  br i1 %.not106, label %103, label %91

72:                                               ; preds = %55, %55
  %73 = tail call fastcc i32 @is_startline(ptr noundef nonnull %.2, i32 noundef %1, ptr noundef %2, i32 noundef %3, i32 noundef 1), !range !4
  %.not105 = icmp eq i32 %73, 0
  br i1 %.not105, label %103, label %91

74:                                               ; preds = %55
  %75 = tail call fastcc i32 @is_startline(ptr noundef nonnull %.2, i32 noundef %1, ptr noundef %2, i32 noundef %8, i32 noundef %4), !range !4
  %.not104 = icmp eq i32 %75, 0
  br i1 %.not104, label %103, label %91

76:                                               ; preds = %55, %55, %55
  %77 = getelementptr inbounds i8, ptr %.2, i64 1
  %78 = load i8, ptr %77, align 1
  %.not102 = icmp eq i8 %78, 12
  br i1 %.not102, label %79, label %103

79:                                               ; preds = %76
  %80 = load i32, ptr %9, align 4
  %81 = and i32 %80, %1
  %82 = icmp ne i32 %81, 0
  %or.cond19 = or i1 %10, %82
  br i1 %or.cond19, label %103, label %83

83:                                               ; preds = %79
  %84 = load i32, ptr %6, align 4
  %85 = or i32 %84, %4
  %or.cond21.not = icmp eq i32 %85, 0
  br i1 %or.cond21.not, label %86, label %103

86:                                               ; preds = %83
  %87 = load i32, ptr %7, align 4
  %88 = and i32 %87, 32768
  %.not103 = icmp eq i32 %88, 0
  br i1 %.not103, label %91, label %103

89:                                               ; preds = %55
  %90 = add i8 %.098.in, -29
  %or.cond23 = icmp ult i8 %90, -2
  br i1 %or.cond23, label %103, label %91

91:                                               ; preds = %58, %74, %89, %86, %72, %56
  %92 = getelementptr inbounds i8, ptr %.097, i64 1
  %93 = load i8, ptr %92, align 1
  %94 = zext i8 %93 to i64
  %95 = shl nuw nsw i64 %94, 8
  %96 = getelementptr inbounds i8, ptr %.097, i64 2
  %97 = load i8, ptr %96, align 1
  %98 = zext i8 %97 to i64
  %99 = or disjoint i64 %95, %98
  %100 = getelementptr inbounds i8, ptr %.097, i64 %99
  %101 = load i8, ptr %100, align 1
  %102 = icmp eq i8 %101, 120
  br i1 %102, label %12, label %103

103:                                              ; preds = %91, %89, %76, %79, %83, %86, %74, %72, %58, %56, %38, %36, %36, %36, %36, %36, %36, %36
  %.0 = phi i32 [ 0, %36 ], [ 0, %36 ], [ 0, %36 ], [ 0, %36 ], [ 0, %36 ], [ 0, %36 ], [ 0, %36 ], [ 0, %38 ], [ 0, %56 ], [ 0, %58 ], [ 0, %72 ], [ 0, %74 ], [ 0, %86 ], [ 0, %83 ], [ 0, %79 ], [ 0, %76 ], [ 0, %89 ], [ 1, %91 ]
  ret i32 %.0
}